; ModuleID = '12/950.c'
source_filename = "12/950.c"
target datalayout = "e-m:e-p270:32:32-p271:32:32-p272:64:64-i64:64-f80:128-n8:16:32:64-S128"
target triple = "x86_64-pc-linux-gnu"

@.str = private unnamed_addr constant [3 x i8] c"%d\00", align 1
@.str.1 = private unnamed_addr constant [4 x i8] c"%d\0A\00", align 1

; Function Attrs: noinline nounwind uwtable
define dso_local void @main() #0 {
  %1 = alloca [200 x i32], align 16
  %2 = alloca i32, align 4
  %3 = alloca i32, align 4
  %4 = alloca i32, align 4
  %5 = alloca i32, align 4
  store i32 0, i32* %4, align 4
  store i32 0, i32* %5, align 4
  store i32 0, i32* %3, align 4
  br label %6

6:                                                ; preds = %77, %0
  %7 = load i32, i32* %3, align 4
  %8 = icmp slt i32 %7, 200
  br i1 %8, label %9, label %80

9:                                                ; preds = %6
  %10 = load i32, i32* %3, align 4
  %11 = sext i32 %10 to i64
  %12 = getelementptr inbounds [200 x i32], [200 x i32]* %1, i64 0, i64 %11
  %13 = call i32 (i8*, ...) @__isoc99_scanf(i8* getelementptr inbounds ([3 x i8], [3 x i8]* @.str, i64 0, i64 0), i32* %12)
  %14 = load i32, i32* %3, align 4
  %15 = sext i32 %14 to i64
  %16 = getelementptr inbounds [200 x i32], [200 x i32]* %1, i64 0, i64 %15
  %17 = load i32, i32* %16, align 4
  %18 = icmp ne i32 %17, -1
  br i1 %18, label %19, label %28

19:                                               ; preds = %9
  %20 = load i32, i32* %3, align 4
  %21 = sext i32 %20 to i64
  %22 = getelementptr inbounds [200 x i32], [200 x i32]* %1, i64 0, i64 %21
  %23 = load i32, i32* %22, align 4
  %24 = icmp ne i32 %23, 0
  br i1 %24, label %25, label %28

25:                                               ; preds = %19
  %26 = load i32, i32* %4, align 4
  %27 = add nsw i32 %26, 1
  store i32 %27, i32* %4, align 4
  br label %28

28:                                               ; preds = %25, %19, %9
  %29 = load i32, i32* %3, align 4
  %30 = sext i32 %29 to i64
  %31 = getelementptr inbounds [200 x i32], [200 x i32]* %1, i64 0, i64 %30
  %32 = load i32, i32* %31, align 4
  %33 = icmp eq i32 %32, -1
  br i1 %33, label %34, label %35

34:                                               ; preds = %28
  br label %80

35:                                               ; preds = %28
  %36 = load i32, i32* %3, align 4
  %37 = sext i32 %36 to i64
  %38 = getelementptr inbounds [200 x i32], [200 x i32]* %1, i64 0, i64 %37
  %39 = load i32, i32* %38, align 4
  %40 = icmp eq i32 %39, 0
  br i1 %40, label %41, label %76

41:                                               ; preds = %35
  store i32 0, i32* %2, align 4
  br label %42

42:                                               ; preds = %70, %41
  %43 = load i32, i32* %2, align 4
  %44 = load i32, i32* %4, align 4
  %45 = icmp slt i32 %43, %44
  br i1 %45, label %46, label %73

46:                                               ; preds = %42
  store i32 0, i32* %3, align 4
  br label %47

47:                                               ; preds = %66, %46
  %48 = load i32, i32* %3, align 4
  %49 = load i32, i32* %4, align 4
  %50 = icmp slt i32 %48, %49
  br i1 %50, label %51, label %69

51:                                               ; preds = %47
  %52 = load i32, i32* %2, align 4
  %53 = sext i32 %52 to i64
  %54 = getelementptr inbounds [200 x i32], [200 x i32]* %1, i64 0, i64 %53
  %55 = load i32, i32* %54, align 4
  %56 = load i32, i32* %3, align 4
  %57 = sext i32 %56 to i64
  %58 = getelementptr inbounds [200 x i32], [200 x i32]* %1, i64 0, i64 %57
  %59 = load i32, i32* %58, align 4
  %60 = mul nsw i32 2, %59
  %61 = icmp eq i32 %55, %60
  br i1 %61, label %62, label %65

62:                                               ; preds = %51
  %63 = load i32, i32* %5, align 4
  %64 = add nsw i32 %63, 1
  store i32 %64, i32* %5, align 4
  br label %65

65:                                               ; preds = %62, %51
  br label %66

66:                                               ; preds = %65
  %67 = load i32, i32* %3, align 4
  %68 = add nsw i32 %67, 1
  store i32 %68, i32* %3, align 4
  br label %47

69:                                               ; preds = %47
  br label %70

70:                                               ; preds = %69
  %71 = load i32, i32* %2, align 4
  %72 = add nsw i32 %71, 1
  store i32 %72, i32* %2, align 4
  br label %42

73:                                               ; preds = %42
  %74 = load i32, i32* %5, align 4
  %75 = call i32 (i8*, ...) @printf(i8* getelementptr inbounds ([4 x i8], [4 x i8]* @.str.1, i64 0, i64 0), i32 %74)
  store i32 0, i32* %5, align 4
  store i32 -1, i32* %3, align 4
  store i32 0, i32* %4, align 4
  br label %76

76:                                               ; preds = %73, %35
  br label %77

77:                                               ; preds = %76
  %78 = load i32, i32* %3, align 4
  %79 = add nsw i32 %78, 1
  store i32 %79, i32* %3, align 4
  br label %6

80:                                               ; preds = %34, %6
  ret void
}

declare dso_local i32 @__isoc99_scanf(i8*, ...) #1

declare dso_local i32 @printf(i8*, ...) #1


!llvm.module.flags = !{!0}
!llvm.ident = !{!1}

!0 = !{i32 1, !"wchar_size", i32 4}
!1 = !{!"clang version 10.0.0-4ubuntu1 "}
